target datalayout = "e-m:e-p270:32:32-p271:32:32-p272:64:64-i64:64-i128:128-f80:128-n8:16:32:64-S128"
target triple = "x86_64-pc-linux-gnu"

%struct.lean_object = type { i32, i32 }

; Function Attrs: inlinehint nounwind uwtable
define internal zeroext i8 @lean_ptr_tag(ptr noundef %0) #0 {
  %2 = alloca ptr, align 8
  store ptr %0, ptr %2, align 8, !tbaa !7
  %3 = load ptr, ptr %2, align 8, !tbaa !7
  %4 = getelementptr inbounds nuw %struct.lean_object, ptr %3, i32 0, i32 1
  %5 = load i32, ptr %4, align 4
  %6 = lshr i32 %5, 24
  %7 = trunc i32 %6 to i8
  ret i8 %7
}

; Function Attrs: inlinehint nounwind uwtable
define internal i64 @lean_unbox(ptr noundef %0) #0 {
  %2 = alloca ptr, align 8
  store ptr %0, ptr %2, align 8, !tbaa !7
  %3 = load ptr, ptr %2, align 8, !tbaa !7
  %4 = ptrtoint ptr %3 to i64
  %5 = lshr i64 %4, 1
  ret i64 %5
}

; Function Attrs: alwaysinline nounwind uwtable
define internal zeroext i1 @lean_is_scalar(ptr noundef %0) #1 {
  %2 = alloca ptr, align 8
  store ptr %0, ptr %2, align 8, !tbaa !7
  %3 = load ptr, ptr %2, align 8, !tbaa !7
  %4 = ptrtoint ptr %3 to i64
  %5 = and i64 %4, 1
  %6 = icmp eq i64 %5, 1
  ret i1 %6
}

; Function Attrs: inlinehint nounwind uwtable
define internal i32 @lean_obj_tag(ptr noundef %0) #0 {
  %2 = alloca i32, align 4
  %3 = alloca ptr, align 8
  store ptr %0, ptr %3, align 8, !tbaa !7
  %4 = load ptr, ptr %3, align 8, !tbaa !7
  %5 = call zeroext i1 @lean_is_scalar(ptr noundef %4)
  br i1 %5, label %6, label %10

6:                                                ; preds = %1
  %7 = load ptr, ptr %3, align 8, !tbaa !7
  %8 = call i64 @lean_unbox(ptr noundef %7)
  %9 = trunc i64 %8 to i32
  store i32 %9, ptr %2, align 4
  br label %14

10:                                               ; preds = %1
  %11 = load ptr, ptr %3, align 8, !tbaa !7
  %12 = call zeroext i8 @lean_ptr_tag(ptr noundef %11)
  %13 = zext i8 %12 to i32
  store i32 %13, ptr %2, align 4
  br label %14

14:                                               ; preds = %10, %6
  %15 = load i32, ptr %2, align 4
  ret i32 %15
}

; Function Attrs: nounwind uwtable
define zeroext i8 @l_Lean_Expr_ctorWeight(ptr noundef %0) #2 {
  %2 = alloca i8, align 1
  %3 = alloca ptr, align 8
  %4 = alloca i8, align 1
  %5 = alloca i8, align 1
  %6 = alloca i8, align 1
  %7 = alloca i8, align 1
  %8 = alloca i8, align 1
  %9 = alloca i8, align 1
  %10 = alloca i8, align 1
  %11 = alloca i8, align 1
  %12 = alloca i8, align 1
  %13 = alloca i8, align 1
  %14 = alloca i8, align 1
  %15 = alloca i8, align 1
  store ptr %0, ptr %3, align 8, !tbaa !7
  br label %16

16:                                               ; preds = %1
  %17 = load ptr, ptr %3, align 8, !tbaa !7
  %18 = call i32 @lean_obj_tag(ptr noundef %17)
  switch i32 %18, label %41 [
    i32 0, label %19
    i32 1, label %21
    i32 2, label %23
    i32 3, label %25
    i32 4, label %27
    i32 5, label %29
    i32 6, label %31
    i32 7, label %33
    i32 8, label %35
    i32 9, label %37
    i32 10, label %39
  ]

19:                                               ; preds = %16
  call void @llvm.lifetime.start.p0(i64 1, ptr %4) #7
  store i8 0, ptr %4, align 1, !tbaa !4
  %20 = load i8, ptr %4, align 1, !tbaa !4
  store i8 %20, ptr %2, align 1
  call void @llvm.lifetime.end.p0(i64 1, ptr %4) #7
  br label %43

21:                                               ; preds = %16
  call void @llvm.lifetime.start.p0(i64 1, ptr %5) #7
  store i8 1, ptr %5, align 1, !tbaa !4
  %22 = load i8, ptr %5, align 1, !tbaa !4
  store i8 %22, ptr %2, align 1
  call void @llvm.lifetime.end.p0(i64 1, ptr %5) #7
  br label %43

23:                                               ; preds = %16
  call void @llvm.lifetime.start.p0(i64 1, ptr %6) #7
  store i8 2, ptr %6, align 1, !tbaa !4
  %24 = load i8, ptr %6, align 1, !tbaa !4
  store i8 %24, ptr %2, align 1
  call void @llvm.lifetime.end.p0(i64 1, ptr %6) #7
  br label %43

25:                                               ; preds = %16
  call void @llvm.lifetime.start.p0(i64 1, ptr %7) #7
  store i8 3, ptr %7, align 1, !tbaa !4
  %26 = load i8, ptr %7, align 1, !tbaa !4
  store i8 %26, ptr %2, align 1
  call void @llvm.lifetime.end.p0(i64 1, ptr %7) #7
  br label %43

27:                                               ; preds = %16
  call void @llvm.lifetime.start.p0(i64 1, ptr %8) #7
  store i8 4, ptr %8, align 1, !tbaa !4
  %28 = load i8, ptr %8, align 1, !tbaa !4
  store i8 %28, ptr %2, align 1
  call void @llvm.lifetime.end.p0(i64 1, ptr %8) #7
  br label %43

29:                                               ; preds = %16
  call void @llvm.lifetime.start.p0(i64 1, ptr %9) #7
  store i8 8, ptr %9, align 1, !tbaa !4
  %30 = load i8, ptr %9, align 1, !tbaa !4
  store i8 %30, ptr %2, align 1
  call void @llvm.lifetime.end.p0(i64 1, ptr %9) #7
  br label %43

31:                                               ; preds = %16
  call void @llvm.lifetime.start.p0(i64 1, ptr %10) #7
  store i8 9, ptr %10, align 1, !tbaa !4
  %32 = load i8, ptr %10, align 1, !tbaa !4
  store i8 %32, ptr %2, align 1
  call void @llvm.lifetime.end.p0(i64 1, ptr %10) #7
  br label %43

33:                                               ; preds = %16
  call void @llvm.lifetime.start.p0(i64 1, ptr %11) #7
  store i8 10, ptr %11, align 1, !tbaa !4
  %34 = load i8, ptr %11, align 1, !tbaa !4
  store i8 %34, ptr %2, align 1
  call void @llvm.lifetime.end.p0(i64 1, ptr %11) #7
  br label %43

35:                                               ; preds = %16
  call void @llvm.lifetime.start.p0(i64 1, ptr %12) #7
  store i8 11, ptr %12, align 1, !tbaa !4
  %36 = load i8, ptr %12, align 1, !tbaa !4
  store i8 %36, ptr %2, align 1
  call void @llvm.lifetime.end.p0(i64 1, ptr %12) #7
  br label %43

37:                                               ; preds = %16
  call void @llvm.lifetime.start.p0(i64 1, ptr %13) #7
  store i8 5, ptr %13, align 1, !tbaa !4
  %38 = load i8, ptr %13, align 1, !tbaa !4
  store i8 %38, ptr %2, align 1
  call void @llvm.lifetime.end.p0(i64 1, ptr %13) #7
  br label %43

39:                                               ; preds = %16
  call void @llvm.lifetime.start.p0(i64 1, ptr %14) #7
  store i8 6, ptr %14, align 1, !tbaa !4
  %40 = load i8, ptr %14, align 1, !tbaa !4
  store i8 %40, ptr %2, align 1
  call void @llvm.lifetime.end.p0(i64 1, ptr %14) #7
  br label %43

41:                                               ; preds = %16
  call void @llvm.lifetime.start.p0(i64 1, ptr %15) #7
  store i8 7, ptr %15, align 1, !tbaa !4
  %42 = load i8, ptr %15, align 1, !tbaa !4
  store i8 %42, ptr %2, align 1
  call void @llvm.lifetime.end.p0(i64 1, ptr %15) #7
  br label %43

43:                                               ; preds = %41, %39, %37, %35, %33, %31, %29, %27, %25, %23, %21, %19
  %44 = load i8, ptr %2, align 1
  ret i8 %44
}