; Function Attrs: mustprogress nofree norecurse nosync nounwind willreturn memory(argmem: read) uwtable
define zeroext range(i8 0, 12) i8 @l_Lean_Expr_ctorWeight(ptr noundef %0) local_unnamed_addr #0 {
  %2 = ptrtoint ptr %0 to i64
  %3 = and i64 %2, 1
  %.not.i = icmp eq i64 %3, 0
  br i1 %.not.i, label %7, label %4

4:                                                ; preds = %1
  %5 = lshr i64 %2, 1
  %6 = trunc i64 %5 to i32
  br label %lean_obj_tag.exit

7:                                                ; preds = %1
  %8 = getelementptr i8, ptr %0, i64 4
  %.val.i = load i32, ptr %8, align 4
  %9 = lshr i32 %.val.i, 24
  br label %lean_obj_tag.exit

lean_obj_tag.exit:                                ; preds = %4, %7
  %.0.i = phi i32 [ %6, %4 ], [ %9, %7 ]
  %10 = icmp ult i32 %.0.i, 11
  br i1 %10, label %switch.lookup, label %12

switch.lookup:                                    ; preds = %lean_obj_tag.exit
  %11 = zext nneg i32 %.0.i to i64
  %switch.gep = getelementptr inbounds nuw [11 x i8], ptr @switch.table.l_Lean_Meta_ACLt_main_lpo.10, i64 0, i64 %11
  %switch.load = load i8, ptr %switch.gep, align 1
  br label %12

12:                                               ; preds = %lean_obj_tag.exit, %switch.lookup
  %.0 = phi i8 [ %switch.load, %switch.lookup ], [ 7, %lean_obj_tag.exit ]
  ret i8 %.0
}